; Function Attrs: mustprogress nounwind uwtable
define noundef zeroext i1 @_ZNK18wide_counter_csr_t19is_counting_enabledEv(ptr noundef nonnull readonly align 8 captures(none) dereferenceable(64) %0) local_unnamed_addr #7 align 2 personality ptr @__gxx_personality_v0 {
  %2 = getelementptr inbounds nuw i8, ptr %0, i64 16
  %3 = load ptr, ptr %2, align 8, !tbaa !15
  %4 = getelementptr inbounds nuw i8, ptr %3, i64 848
  %5 = load i8, ptr %4, align 8, !tbaa !239, !range !94, !noundef !95
  %6 = trunc nuw i8 %5 to i1
  %.in.v = select i1 %6, i64 840, i64 832
  %.in = getelementptr inbounds nuw i8, ptr %3, i64 %.in.v
  %7 = load i64, ptr %.in, align 8, !tbaa !96
  %8 = getelementptr inbounds nuw i8, ptr %3, i64 849
  %9 = load i8, ptr %8, align 1, !tbaa !240, !range !94, !noundef !95
  %10 = trunc nuw i8 %9 to i1
  %.in6.in.v = select i1 %10, i64 851, i64 850
  %.in6.in = getelementptr inbounds nuw i8, ptr %3, i64 %.in6.in.v
  %.in6 = load i8, ptr %.in6.in, align 1, !tbaa !241, !range !94, !noundef !95
  %11 = trunc nuw i8 %.in6 to i1
  switch i64 %7, label %16 [
    i64 1, label %12
    i64 0, label %14
  ]

12:                                               ; preds = %1
  %13 = select i1 %11, i64 576460752303423488, i64 2305843009213693952
  br label %16

14:                                               ; preds = %1
  %15 = select i1 %11, i64 288230376151711744, i64 1152921504606846976
  br label %16

16:                                               ; preds = %1, %14, %12
  %.0 = phi i64 [ %13, %12 ], [ %15, %14 ], [ 4611686018427387904, %1 ]
  %17 = getelementptr inbounds nuw i8, ptr %0, i64 48
  %18 = load ptr, ptr %17, align 8, !tbaa !238
  %19 = getelementptr inbounds nuw i8, ptr %18, i64 56
  %20 = load ptr, ptr %18, align 8, !tbaa !3
  %21 = getelementptr inbounds nuw i8, ptr %20, i64 8
  %22 = load ptr, ptr %21, align 8
  %23 = tail call noundef i64 %22(ptr noundef nonnull align 8 dereferenceable(72) %18) #30
  %24 = getelementptr inbounds nuw i8, ptr %18, i64 64
  %25 = load i8, ptr %24, align 8, !tbaa !242, !range !94, !noundef !95
  %26 = trunc nuw i8 %25 to i1
  %.val.i.i = load i64, ptr %19, align 8
  %.0.i.i = select i1 %26, i64 %.val.i.i, i64 %23
  %27 = and i64 %.0.i.i, %.0
  %28 = icmp eq i64 %27, 0
  ret i1 %28
}